target datalayout = "e-m:e-p270:32:32-p271:32:32-p272:64:64-i64:64-i128:128-f80:128-n8:16:32:64-S128"
target triple = "x86_64-pc-linux-gnu"

%union.JfrNativeSettings = type { [164 x %struct.jfrNativeEventSetting] }
%struct.jfrNativeEventSetting = type { i64, i64, i8, i8, i8, [5 x i8] }
%class.Compile = type <{ %class.Phase, i32, %class.Options, [4 x i8], ptr, i32, [4 x i8], ptr, ptr, ptr, ptr, ptr, i32, i32, i32, [4 x i8], i64, i8, i8, [2 x i8], i32, i8, i8, i8, i8, i8, i8, i8, i8, i8, [3 x i8], i32, i8, [3 x i8], [30 x i32], i8, [3 x i8], i32, i8, i8, i8, i8, i8, i8, i8, i8, i8, i8, i8, i8, i8, [3 x i8], i32, i32, [4 x i8], %class.Arena, ptr, ptr, ptr, ptr, %class.CHeapStringHolder, ptr, %class.GrowableArray, %class.GrowableArray.0, %class.GrowableArray.3, %class.GrowableArray.0, %class.GrowableArray.0, %class.GrowableArray.0, %class.GrowableArray.6, %class.GrowableArray.9, ptr, i32, i32, %class.VectorSet, %class.Arena, %class.Arena, ptr, ptr, ptr, ptr, ptr, ptr, ptr, ptr, ptr, %class.Arena, ptr, ptr, %class.CloneMap, i64, ptr, ptr, ptr, i32, i32, [64 x %"struct.Compile::AliasCacheEntry"], ptr, ptr, ptr, ptr, %class.GrowableArray, %class.GrowableArray, %class.GrowableArray, %class.GrowableArray, i32, i32, i8, [7 x i8], ptr, ptr, i32, [4 x i8], ptr, ptr, ptr, i32, i32, ptr, ptr, %class.RegMask, ptr, ptr, i32, [4 x i8], ptr, %class.TimeInstant, i32, [4 x i8] }>
%class.Phase = type { i32, ptr }
%class.Options = type { i8, i8, i8, i8, i8, i8, i8, i8 }
%class.CHeapStringHolder = type { ptr }
%class.GrowableArray.3 = type { %class.GrowableArrayWithAllocator.4, %class.GrowableArrayMetadata }
%class.GrowableArrayWithAllocator.4 = type { %class.GrowableArrayView.5 }
%class.GrowableArrayView.5 = type { %class.GrowableArrayBase, ptr }
%class.GrowableArrayBase = type { i32, i32 }
%class.GrowableArrayMetadata = type { i64 }
%class.GrowableArray.0 = type { %class.GrowableArrayWithAllocator.1, %class.GrowableArrayMetadata }
%class.GrowableArrayWithAllocator.1 = type { %class.GrowableArrayView.2 }
%class.GrowableArrayView.2 = type { %class.GrowableArrayBase, ptr }
%class.GrowableArray.6 = type { %class.GrowableArrayWithAllocator.7, %class.GrowableArrayMetadata }
%class.GrowableArrayWithAllocator.7 = type { %class.GrowableArrayView.8 }
%class.GrowableArrayView.8 = type { %class.GrowableArrayBase, ptr }
%class.GrowableArray.9 = type { %class.GrowableArrayWithAllocator.10, %class.GrowableArrayMetadata }
%class.GrowableArrayWithAllocator.10 = type { %class.GrowableArrayView.11 }
%class.GrowableArrayView.11 = type { %class.GrowableArrayBase, ptr }
%class.VectorSet = type { i32, ptr, i32, ptr }
%class.Arena = type { i8, i8, i64, ptr, ptr, ptr, ptr }
%class.CloneMap = type <{ i8, [7 x i8], ptr, i32, [4 x i8] }>
%"struct.Compile::AliasCacheEntry" = type { ptr, i32 }
%class.GrowableArray = type { %class.GrowableArrayWithAllocator, %class.GrowableArrayMetadata }
%class.GrowableArrayWithAllocator = type { %class.GrowableArrayView }
%class.GrowableArrayView = type { %class.GrowableArrayBase, ptr }
%class.RegMask = type { %union.anon, i32, i32 }
%union.anon = type { [11 x i64] }
%class.TimeInstant = type { %class.CompositeCounterRepresentation }
%class.CompositeCounterRepresentation = type { %class.Representation }
%class.Representation = type { %class.PairRep }
%class.PairRep = type { i64, i64 }
%class.EventCompilerPhase = type <{ %class.JfrEvent.base, [5 x i8], i64, i32, i16, [2 x i8] }>
%class.JfrEvent.base = type <{ i64, i64, i8, i8, i8 }>
%class.JfrEvent = type <{ i64, i64, i8, i8, i8, [5 x i8] }>
%class.TimeInstant.82 = type { %class.CounterRepresentation }
%class.CounterRepresentation = type { %class.Representation.83 }
%class.Representation.83 = type { i64 }

@_ZN15JfrEventSetting19_jvm_event_settingsE = external global %union.JfrNativeSettings, align 8

; Function Attrs: mustprogress nounwind uwtable
define linkonce_odr hidden void @_ZN14RepresentationI33FastUnorderedElapsedCounterSourceEC2Ev(ptr noundef nonnull align 8 dereferenceable(8) %0) unnamed_addr #1 comdat align 2 {
  %2 = alloca ptr, align 8
  store ptr %0, ptr %2, align 8
  %3 = load ptr, ptr %2, align 8
  %4 = getelementptr inbounds %class.Representation.83, ptr %3, i32 0, i32 0
  store i64 0, ptr %4, align 8
  ret void
}

; Function Attrs: mustprogress nounwind uwtable
define linkonce_odr hidden void @_ZN21CounterRepresentationI33FastUnorderedElapsedCounterSourceEC2Ev(ptr noundef nonnull align 8 dereferenceable(8) %0) unnamed_addr #1 comdat align 2 {
  %2 = alloca ptr, align 8
  store ptr %0, ptr %2, align 8
  %3 = load ptr, ptr %2, align 8
  call void @_ZN14RepresentationI33FastUnorderedElapsedCounterSourceEC2Ev(ptr noundef nonnull align 8 dereferenceable(8) %3)
  ret void
}

; Function Attrs: mustprogress nounwind uwtable
define linkonce_odr hidden noundef nonnull align 8 dereferenceable(24) ptr @_ZN15JfrEventSetting7settingE10JfrEventId(i32 noundef %0) #1 comdat align 2 {
  %2 = alloca i32, align 4
  store i32 %0, ptr %2, align 4
  %3 = load i32, ptr %2, align 4
  %4 = zext i32 %3 to i64
  %5 = getelementptr inbounds [164 x %struct.jfrNativeEventSetting], ptr @_ZN15JfrEventSetting19_jvm_event_settingsE, i64 0, i64 %4
  ret ptr %5
}

; Function Attrs: mustprogress nounwind uwtable
define linkonce_odr hidden noundef i64 @_ZNK21CounterRepresentationI33FastUnorderedElapsedCounterSourceE5valueEv(ptr noundef nonnull align 8 dereferenceable(8) %0) #1 comdat align 2 {
  %2 = alloca ptr, align 8
  store ptr %0, ptr %2, align 8
  %3 = load ptr, ptr %2, align 8
  %4 = getelementptr inbounds %class.Representation.83, ptr %3, i32 0, i32 0
  %5 = load i64, ptr %4, align 8
  ret i64 %5
}

; Function Attrs: mustprogress nounwind uwtable
define linkonce_odr hidden void @_ZN11TimeInstantI21CounterRepresentation33FastUnorderedElapsedCounterSourceE5stampEv(ptr noundef nonnull align 8 dereferenceable(8) %0) #1 comdat align 2 {
  %2 = alloca ptr, align 8
  store ptr %0, ptr %2, align 8
  %3 = load ptr, ptr %2, align 8
  %4 = call noundef i64 @_ZN33FastUnorderedElapsedCounterSource3nowEv()
  %5 = getelementptr inbounds %class.Representation.83, ptr %3, i32 0, i32 0
  store i64 %4, ptr %5, align 8
  ret void
}

; Function Attrs: mustprogress nounwind uwtable
define linkonce_odr hidden void @_ZN11TimeInstantI21CounterRepresentation33FastUnorderedElapsedCounterSourceEC2Ev(ptr noundef nonnull align 8 dereferenceable(8) %0) unnamed_addr #1 comdat align 2 {
  %2 = alloca ptr, align 8
  store ptr %0, ptr %2, align 8
  %3 = load ptr, ptr %2, align 8
  call void @_ZN21CounterRepresentationI33FastUnorderedElapsedCounterSourceEC2Ev(ptr noundef nonnull align 8 dereferenceable(8) %3)
  ret void
}

; Function Attrs: mustprogress nounwind uwtable
define linkonce_odr hidden noundef i64 @_ZN15JfrEventSetting9thresholdE10JfrEventId(i32 noundef %0) #1 comdat align 2 {
  %2 = alloca i32, align 4
  store i32 %0, ptr %2, align 4
  %3 = load i32, ptr %2, align 4
  %4 = call noundef nonnull align 8 dereferenceable(24) ptr @_ZN15JfrEventSetting7settingE10JfrEventId(i32 noundef %3)
  %5 = getelementptr inbounds %struct.jfrNativeEventSetting, ptr %4, i32 0, i32 0
  %6 = load i64, ptr %5, align 8
  ret i64 %6
}

; Function Attrs: mustprogress nounwind uwtable
define linkonce_odr hidden void @_ZN8JfrEventI18EventCompilerPhaseE11set_endtimeERK11TimeInstantI21CounterRepresentation33FastUnorderedElapsedCounterSourceE(ptr noundef nonnull align 8 dereferenceable(19) %0, ptr noundef nonnull align 8 dereferenceable(8) %1) #1 comdat align 2 {
  %3 = alloca ptr, align 8
  %4 = alloca ptr, align 8
  store ptr %0, ptr %3, align 8
  store ptr %1, ptr %4, align 8
  %5 = load ptr, ptr %3, align 8
  %6 = load ptr, ptr %4, align 8
  %7 = call noundef i64 @_ZNK21CounterRepresentationI33FastUnorderedElapsedCounterSourceE5valueEv(ptr noundef nonnull align 8 dereferenceable(8) %6)
  %8 = getelementptr inbounds %class.JfrEvent, ptr %5, i32 0, i32 1
  store i64 %7, ptr %8, align 8
  ret void
}

; Function Attrs: mustprogress nounwind uwtable
define linkonce_odr hidden noundef zeroext i1 @_ZN15JfrEventSetting10is_enabledE10JfrEventId(i32 noundef %0) #1 comdat align 2 {
  %2 = alloca i32, align 4
  store i32 %0, ptr %2, align 4
  %3 = load i32, ptr %2, align 4
  %4 = call noundef nonnull align 8 dereferenceable(24) ptr @_ZN15JfrEventSetting7settingE10JfrEventId(i32 noundef %3)
  %5 = getelementptr inbounds %struct.jfrNativeEventSetting, ptr %4, i32 0, i32 3
  %6 = load i8, ptr %5, align 1
  %7 = zext i8 %6 to i32
  %8 = icmp ne i32 0, %7
  ret i1 %8
}

; Function Attrs: mustprogress nounwind uwtable
define linkonce_odr hidden void @_ZN8JfrEventI18EventCompilerPhaseE13set_starttimeERK11TimeInstantI21CounterRepresentation33FastUnorderedElapsedCounterSourceE(ptr noundef nonnull align 8 dereferenceable(19) %0, ptr noundef nonnull align 8 dereferenceable(8) %1) #1 comdat align 2 {
  %3 = alloca ptr, align 8
  %4 = alloca ptr, align 8
  store ptr %0, ptr %3, align 8
  store ptr %1, ptr %4, align 8
  %5 = load ptr, ptr %3, align 8
  %6 = load ptr, ptr %4, align 8
  %7 = call noundef i64 @_ZNK21CounterRepresentationI33FastUnorderedElapsedCounterSourceE5valueEv(ptr noundef nonnull align 8 dereferenceable(8) %6)
  %8 = getelementptr inbounds %class.JfrEvent, ptr %5, i32 0, i32 0
  store i64 %7, ptr %8, align 8
  ret void
}

; Function Attrs: mustprogress nounwind uwtable
define linkonce_odr hidden i64 @_ZN11TimeInstantI21CounterRepresentation33FastUnorderedElapsedCounterSourceE3nowEv() #1 comdat align 2 {
  %1 = alloca %class.TimeInstant.82, align 8
  call void @_ZN11TimeInstantI21CounterRepresentation33FastUnorderedElapsedCounterSourceEC2Ev(ptr noundef nonnull align 8 dereferenceable(8) %1)
  call void @_ZN11TimeInstantI21CounterRepresentation33FastUnorderedElapsedCounterSourceE5stampEv(ptr noundef nonnull align 8 dereferenceable(8) %1)
  %2 = getelementptr inbounds %class.TimeInstant.82, ptr %1, i32 0, i32 0
  %3 = getelementptr inbounds %class.CounterRepresentation, ptr %2, i32 0, i32 0
  %4 = getelementptr inbounds %class.Representation.83, ptr %3, i32 0, i32 0
  %5 = load i64, ptr %4, align 8
  ret i64 %5
}

; Function Attrs: mustprogress nounwind uwtable
define linkonce_odr hidden noundef zeroext i1 @_ZN8JfrEventI18EventCompilerPhaseE8evaluateEv(ptr noundef nonnull align 8 dereferenceable(19) %0) #1 comdat align 2 {
  %2 = alloca i1, align 1
  %3 = alloca ptr, align 8
  %4 = alloca %class.TimeInstant.82, align 8
  %5 = alloca %class.TimeInstant.82, align 8
  store ptr %0, ptr %3, align 8
  %6 = load ptr, ptr %3, align 8
  %7 = getelementptr inbounds %class.JfrEvent, ptr %6, i32 0, i32 0
  %8 = load i64, ptr %7, align 8
  %9 = icmp eq i64 %8, 0
  br i1 %9, label %10, label %15

10:                                               ; preds = %1
  %11 = call i64 @_ZN11TimeInstantI21CounterRepresentation33FastUnorderedElapsedCounterSourceE3nowEv()
  %12 = getelementptr inbounds %class.TimeInstant.82, ptr %4, i32 0, i32 0
  %13 = getelementptr inbounds %class.CounterRepresentation, ptr %12, i32 0, i32 0
  %14 = getelementptr inbounds %class.Representation.83, ptr %13, i32 0, i32 0
  store i64 %11, ptr %14, align 8
  call void @_ZN8JfrEventI18EventCompilerPhaseE13set_starttimeERK11TimeInstantI21CounterRepresentation33FastUnorderedElapsedCounterSourceE(ptr noundef nonnull align 8 dereferenceable(19) %6, ptr noundef nonnull align 8 dereferenceable(8) %4)
  br label %25

15:                                               ; preds = %1
  %16 = getelementptr inbounds %class.JfrEvent, ptr %6, i32 0, i32 1
  %17 = load i64, ptr %16, align 8
  %18 = icmp eq i64 %17, 0
  br i1 %18, label %19, label %24

19:                                               ; preds = %15
  %20 = call i64 @_ZN11TimeInstantI21CounterRepresentation33FastUnorderedElapsedCounterSourceE3nowEv()
  %21 = getelementptr inbounds %class.TimeInstant.82, ptr %5, i32 0, i32 0
  %22 = getelementptr inbounds %class.CounterRepresentation, ptr %21, i32 0, i32 0
  %23 = getelementptr inbounds %class.Representation.83, ptr %22, i32 0, i32 0
  store i64 %20, ptr %23, align 8
  call void @_ZN8JfrEventI18EventCompilerPhaseE11set_endtimeERK11TimeInstantI21CounterRepresentation33FastUnorderedElapsedCounterSourceE(ptr noundef nonnull align 8 dereferenceable(19) %6, ptr noundef nonnull align 8 dereferenceable(8) %5)
  br label %24

24:                                               ; preds = %19, %15
  br label %25

25:                                               ; preds = %24, %10
  %26 = getelementptr inbounds %class.JfrEvent, ptr %6, i32 0, i32 1
  %27 = load i64, ptr %26, align 8
  %28 = getelementptr inbounds %class.JfrEvent, ptr %6, i32 0, i32 0
  %29 = load i64, ptr %28, align 8
  %30 = sub nsw i64 %27, %29
  %31 = call noundef i64 @_ZN15JfrEventSetting9thresholdE10JfrEventId(i32 noundef 79)
  %32 = icmp slt i64 %30, %31
  br i1 %32, label %33, label %34

33:                                               ; preds = %25
  store i1 false, ptr %2, align 1
  br label %35

34:                                               ; preds = %25
  store i1 true, ptr %2, align 1
  br label %35

35:                                               ; preds = %34, %33
  %36 = load i1, ptr %2, align 1
  ret i1 %36
}

; Function Attrs: mustprogress nounwind uwtable
define linkonce_odr hidden noundef zeroext i1 @_ZN8JfrEventI18EventCompilerPhaseE10is_enabledEv() #1 comdat align 2 {
  %1 = call noundef zeroext i1 @_ZN15JfrEventSetting10is_enabledE10JfrEventId(i32 noundef 79)
  ret i1 %1
}

; Function Attrs: mustprogress nounwind uwtable
define linkonce_odr hidden void @_ZN8JfrEventI18EventCompilerPhaseEC2E14EventStartTime(ptr noundef nonnull align 8 dereferenceable(19) %0, i32 noundef %1) unnamed_addr #1 comdat align 2 {
  %3 = alloca ptr, align 8
  %4 = alloca i32, align 4
  %5 = alloca %class.TimeInstant.82, align 8
  store ptr %0, ptr %3, align 8
  store i32 %1, ptr %4, align 4
  %6 = load ptr, ptr %3, align 8
  %7 = getelementptr inbounds %class.JfrEvent, ptr %6, i32 0, i32 0
  store i64 0, ptr %7, align 8
  %8 = getelementptr inbounds %class.JfrEvent, ptr %6, i32 0, i32 1
  store i64 0, ptr %8, align 8
  %9 = getelementptr inbounds %class.JfrEvent, ptr %6, i32 0, i32 2
  %10 = load i32, ptr %4, align 4
  %11 = icmp eq i32 %10, 0
  %12 = zext i1 %11 to i8
  store i8 %12, ptr %9, align 8
  %13 = getelementptr inbounds %class.JfrEvent, ptr %6, i32 0, i32 3
  store i8 0, ptr %13, align 1
  %14 = getelementptr inbounds %class.JfrEvent, ptr %6, i32 0, i32 4
  store i8 0, ptr %14, align 2
  %15 = getelementptr inbounds %class.JfrEvent, ptr %6, i32 0, i32 2
  %16 = load i8, ptr %15, align 8
  %17 = trunc i8 %16 to i1
  br i1 %17, label %25, label %18

18:                                               ; preds = %2
  %19 = call noundef zeroext i1 @_ZN8JfrEventI18EventCompilerPhaseE10is_enabledEv()
  br i1 %19, label %20, label %25

20:                                               ; preds = %18
  %21 = call i64 @_ZN11TimeInstantI21CounterRepresentation33FastUnorderedElapsedCounterSourceE3nowEv()
  %22 = getelementptr inbounds %class.TimeInstant.82, ptr %5, i32 0, i32 0
  %23 = getelementptr inbounds %class.CounterRepresentation, ptr %22, i32 0, i32 0
  %24 = getelementptr inbounds %class.Representation.83, ptr %23, i32 0, i32 0
  store i64 %21, ptr %24, align 8
  call void @_ZN8JfrEventI18EventCompilerPhaseE13set_starttimeERK11TimeInstantI21CounterRepresentation33FastUnorderedElapsedCounterSourceE(ptr noundef nonnull align 8 dereferenceable(19) %6, ptr noundef nonnull align 8 dereferenceable(8) %5)
  br label %25

25:                                               ; preds = %20, %18, %2
  ret void
}

; Function Attrs: mustprogress nounwind uwtable
define linkonce_odr hidden noundef zeroext i1 @_ZN8JfrEventI18EventCompilerPhaseE13should_commitEv(ptr noundef nonnull align 8 dereferenceable(19) %0) #1 comdat align 2 {
  %2 = alloca i1, align 1
  %3 = alloca ptr, align 8
  store ptr %0, ptr %3, align 8
  %4 = load ptr, ptr %3, align 8
  %5 = call noundef zeroext i1 @_ZN8JfrEventI18EventCompilerPhaseE10is_enabledEv()
  br i1 %5, label %7, label %6

6:                                                ; preds = %1
  store i1 false, ptr %2, align 1
  br label %20

7:                                                ; preds = %1
  %8 = getelementptr inbounds %class.JfrEvent, ptr %4, i32 0, i32 2
  %9 = load i8, ptr %8, align 8
  %10 = trunc i8 %9 to i1
  br i1 %10, label %11, label %12

11:                                               ; preds = %7
  store i1 true, ptr %2, align 1
  br label %20

12:                                               ; preds = %7
  %13 = call noundef zeroext i1 @_ZN8JfrEventI18EventCompilerPhaseE8evaluateEv(ptr noundef nonnull align 8 dereferenceable(19) %4)
  %14 = getelementptr inbounds %class.JfrEvent, ptr %4, i32 0, i32 3
  %15 = zext i1 %13 to i8
  store i8 %15, ptr %14, align 1
  %16 = getelementptr inbounds %class.JfrEvent, ptr %4, i32 0, i32 4
  store i8 1, ptr %16, align 2
  %17 = getelementptr inbounds %class.JfrEvent, ptr %4, i32 0, i32 3
  %18 = load i8, ptr %17, align 1
  %19 = trunc i8 %18 to i1
  store i1 %19, ptr %2, align 1
  br label %20

20:                                               ; preds = %12, %11, %6
  %21 = load i1, ptr %2, align 1
  ret i1 %21
}

; Function Attrs: mustprogress nounwind uwtable
define linkonce_odr hidden void @_ZN18EventCompilerPhaseC2E14EventStartTime(ptr noundef nonnull align 8 dereferenceable(38) %0, i32 noundef %1) unnamed_addr #1 comdat align 2 {
  %3 = alloca ptr, align 8
  %4 = alloca i32, align 4
  store ptr %0, ptr %3, align 8
  store i32 %1, ptr %4, align 4
  %5 = load ptr, ptr %3, align 8
  %6 = load i32, ptr %4, align 4
  call void @_ZN8JfrEventI18EventCompilerPhaseEC2E14EventStartTime(ptr noundef nonnull align 8 dereferenceable(19) %5, i32 noundef %6)
  ret void
}

; Function Attrs: mustprogress nounwind uwtable
define hidden void @_ZN7Compile10end_methodEv(ptr noundef nonnull align 8 dereferenceable(2316) %0) #1 align 2 {
  %2 = alloca ptr, align 8
  %3 = alloca %class.EventCompilerPhase, align 8
  store ptr %0, ptr %2, align 8
  %4 = load ptr, ptr %2, align 8
  call void @_ZN18EventCompilerPhaseC2E14EventStartTime(ptr noundef nonnull align 8 dereferenceable(38) %3, i32 noundef 0)
  %5 = call noundef zeroext i1 @_ZN8JfrEventI18EventCompilerPhaseE13should_commitEv(ptr noundef nonnull align 8 dereferenceable(19) %3)
  br i1 %5, label %6, label %14

6:                                                ; preds = %1
  %7 = getelementptr inbounds %class.Phase, ptr %4, i32 0, i32 1
  %8 = load ptr, ptr %7, align 8
  %9 = getelementptr inbounds %class.Compile, ptr %8, i32 0, i32 125
  %10 = getelementptr inbounds %class.Phase, ptr %4, i32 0, i32 1
  %11 = load ptr, ptr %10, align 8
  %12 = getelementptr inbounds %class.Compile, ptr %11, i32 0, i32 1
  %13 = load i32, ptr %12, align 8
  call void @_ZN13CompilerEvent10PhaseEvent4postER18EventCompilerPhaseRK11TimeInstantI30CompositeCounterRepresentation29CompositeElapsedCounterSourceEiii(ptr noundef nonnull align 8 dereferenceable(38) %3, ptr noundef nonnull align 8 dereferenceable(16) %9, i32 noundef 70, i32 noundef %13, i32 noundef 1)
  br label %14

14:                                               ; preds = %6, %1
  ret void
}