; Function Attrs: mustprogress nounwind uwtable
define hidden void @_ZN7Compile10end_methodEv(ptr nocapture noundef nonnull readonly align 8 dereferenceable(2316) %0) local_unnamed_addr #0 align 2 {
  %2 = alloca %class.EventCompilerPhase, align 8
  %3 = getelementptr inbounds i8, ptr %2, i64 16
  call void @llvm.memset.p0.i64(ptr noundef nonnull align 8 dereferenceable(16) %2, i8 0, i64 16, i1 false)
  store i8 1, ptr %3, align 8
  %4 = getelementptr inbounds i8, ptr %2, i64 17
  store i8 0, ptr %4, align 1
  %5 = getelementptr inbounds i8, ptr %2, i64 18
  store i8 0, ptr %5, align 2
  %6 = load i8, ptr getelementptr inbounds (i8, ptr @_ZN15JfrEventSetting19_jvm_event_settingsE, i64 1913), align 1
  %.not.i = icmp eq i8 %6, 0
  br i1 %.not.i, label %_ZN8JfrEventI18EventCompilerPhaseE13should_commitEv.exit, label %7

7:                                                ; preds = %1
  %8 = getelementptr inbounds i8, ptr %0, i64 8
  %9 = load ptr, ptr %8, align 8
  %10 = getelementptr inbounds i8, ptr %9, i64 2296
  %11 = getelementptr inbounds i8, ptr %9, i64 16
  %12 = load i32, ptr %11, align 8
  call void @_ZN13CompilerEvent10PhaseEvent4postER18EventCompilerPhaseRK11TimeInstantI30CompositeCounterRepresentation29CompositeElapsedCounterSourceEiii(ptr noundef nonnull align 8 dereferenceable(38) %2, ptr noundef nonnull align 8 dereferenceable(16) %10, i32 noundef 70, i32 noundef %12, i32 noundef 1) #17
  br label %_ZN8JfrEventI18EventCompilerPhaseE13should_commitEv.exit

_ZN8JfrEventI18EventCompilerPhaseE13should_commitEv.exit: ; preds = %1, %7
  ret void
}